
RTOS_Blink.elf:     file format elf32-littlearm

Sections:
Idx Name          Size      VMA       LMA       File off  Algn
  0 .text         0000099c  10001000  10001000  00001000  2**4
                  CONTENTS, ALLOC, LOAD, READONLY, CODE
  1 .rodata       00000009  1000199c  1000199c  0000199c  2**0
                  CONTENTS, ALLOC, LOAD, READONLY, DATA
  2 .VENEER_Code  00000138  2000000c  100019b0  0000800c  2**2
                  CONTENTS, ALLOC, LOAD, READONLY, CODE
  3 Stack         00000404  20000144  00000000  00000144  2**0
                  ALLOC
  4 .data         00000004  20000548  10001ae8  00008548  2**2
                  CONTENTS, ALLOC, LOAD, DATA
  5 .bss          00002c0c  2000054c  10001aec  0000854c  2**2
                  ALLOC
  6 .no_init      00000004  20003ffc  1000559c  0000854c  2**2
                  ALLOC
  7 .debug_frame  0000002c  00000000  00000000  0000854c  2**2
                  CONTENTS, READONLY, DEBUGGING
  8 .build_attributes 000001d5  00000000  00000000  00008578  2**0
                  CONTENTS, READONLY

Disassembly of section .text:

10001000 <__Vectors>:
10001000:	48 05 00 20 19 10 00 10 00 00 00 00 99 10 00 10     H.. ............
10001010:	00 01 01 80 00 01 00 00                             ........

10001018 <Reset_Handler>:
10001018:	4911      	ldr	r1, [pc, #68]	; (10001060 <__copy_data+0xe>)
1000101a:	4a12      	ldr	r2, [pc, #72]	; (10001064 <__copy_data+0x12>)
1000101c:	4b12      	ldr	r3, [pc, #72]	; (10001068 <__copy_data+0x16>)
1000101e:	f000 f818 	bl	10001052 <__copy_data>
10001022:	4812      	ldr	r0, [pc, #72]	; (1000106c <__copy_data+0x1a>)
10001024:	4780      	blx	r0
10001026:	4912      	ldr	r1, [pc, #72]	; (10001070 <__copy_data+0x1e>)
10001028:	4a12      	ldr	r2, [pc, #72]	; (10001074 <__copy_data+0x22>)
1000102a:	4b13      	ldr	r3, [pc, #76]	; (10001078 <__copy_data+0x26>)
1000102c:	f000 f811 	bl	10001052 <__copy_data>
10001030:	4912      	ldr	r1, [pc, #72]	; (1000107c <__copy_data+0x2a>)
10001032:	4a13      	ldr	r2, [pc, #76]	; (10001080 <__copy_data+0x2e>)
10001034:	4b13      	ldr	r3, [pc, #76]	; (10001084 <__copy_data+0x32>)
10001036:	f000 f80c 	bl	10001052 <__copy_data>
1000103a:	4913      	ldr	r1, [pc, #76]	; (10001088 <__copy_data+0x36>)
1000103c:	4a13      	ldr	r2, [pc, #76]	; (1000108c <__copy_data+0x3a>)
1000103e:	2000      	movs	r0, #0
10001040:	1a52      	subs	r2, r2, r1
10001042:	dd02      	ble.n	1000104a <Reset_Handler+0x32>
10001044:	3a04      	subs	r2, #4
10001046:	5088      	str	r0, [r1, r2]
10001048:	dcfc      	bgt.n	10001044 <Reset_Handler+0x2c>
1000104a:	4811      	ldr	r0, [pc, #68]	; (10001090 <__copy_data+0x3e>)
1000104c:	4780      	blx	r0
1000104e:	4811      	ldr	r0, [pc, #68]	; (10001094 <__copy_data+0x42>)
10001050:	4780      	blx	r0

10001052 <__copy_data>:
10001052:	1a9b      	subs	r3, r3, r2
10001054:	dd03      	ble.n	1000105e <__copy_data+0xc>
10001056:	3b04      	subs	r3, #4
10001058:	58c8      	ldr	r0, [r1, r3]
1000105a:	50d0      	str	r0, [r2, r3]
1000105c:	dcfb      	bgt.n	10001056 <__copy_data+0x4>
1000105e:	4770      	bx	lr
10001060:	100019b0 	.word	0x100019b0
10001064:	2000000c 	.word	0x2000000c
10001068:	20000144 	.word	0x20000144
1000106c:	100010f5 	.word	0x100010f5
10001070:	10001ae8 	.word	0x10001ae8
10001074:	20000548 	.word	0x20000548
10001078:	2000054c 	.word	0x2000054c
1000107c:	10001aec 	.word	0x10001aec
10001080:	2000054c 	.word	0x2000054c
10001084:	2000054c 	.word	0x2000054c
10001088:	2000054c 	.word	0x2000054c
1000108c:	20003158 	.word	0x20003158
10001090:	10001951 	.word	0x10001951
10001094:	1000192d 	.word	0x1000192d

10001098 <BCCU0_0_IRQHandler>:
10001098:	e7fe      	b.n	10001098 <BCCU0_0_IRQHandler>
	...

1000109c <SystemCoreSetup>:
1000109c:	4770      	bx	lr
	...

100010a0 <SystemCoreClockUpdate>:
100010a0:	4b0c      	ldr	r3, [pc, #48]	; (100010d4 <SystemCoreClockUpdate+0x34>)
100010a2:	4a0d      	ldr	r2, [pc, #52]	; (100010d8 <SystemCoreClockUpdate+0x38>)
100010a4:	6819      	ldr	r1, [r3, #0]
100010a6:	b510      	push	{r4, lr}
100010a8:	0409      	lsls	r1, r1, #16
100010aa:	0e09      	lsrs	r1, r1, #24
100010ac:	6011      	str	r1, [r2, #0]
100010ae:	681b      	ldr	r3, [r3, #0]
100010b0:	4a0a      	ldr	r2, [pc, #40]	; (100010dc <SystemCoreClockUpdate+0x3c>)
100010b2:	b2db      	uxtb	r3, r3
100010b4:	6013      	str	r3, [r2, #0]
100010b6:	4c0a      	ldr	r4, [pc, #40]	; (100010e0 <SystemCoreClockUpdate+0x40>)
100010b8:	2900      	cmp	r1, #0
100010ba:	d007      	beq.n	100010cc <SystemCoreClockUpdate+0x2c>
100010bc:	0209      	lsls	r1, r1, #8
100010be:	18c9      	adds	r1, r1, r3
100010c0:	4808      	ldr	r0, [pc, #32]	; (100010e4 <SystemCoreClockUpdate+0x44>)
100010c2:	f000 f81d 	bl	10001100 <__aeabi_uidiv>
100010c6:	0040      	lsls	r0, r0, #1
100010c8:	6020      	str	r0, [r4, #0]
100010ca:	e001      	b.n	100010d0 <SystemCoreClockUpdate+0x30>
100010cc:	4b06      	ldr	r3, [pc, #24]	; (100010e8 <SystemCoreClockUpdate+0x48>)
100010ce:	6023      	str	r3, [r4, #0]
100010d0:	bd10      	pop	{r4, pc}
100010d2:	46c0      	nop			; (mov r8, r8)
100010d4:	40010300 	.word	0x40010300
100010d8:	20000550 	.word	0x20000550
100010dc:	2000054c 	.word	0x2000054c
100010e0:	20003ffc 	.word	0x20003ffc
100010e4:	f4240000 	.word	0xf4240000
100010e8:	01e84800 	.word	0x01e84800

100010ec <SystemCoreClockSetup>:
100010ec:	b508      	push	{r3, lr}
100010ee:	f7ff ffd7 	bl	100010a0 <SystemCoreClockUpdate>
100010f2:	bd08      	pop	{r3, pc}

100010f4 <SystemInit>:
100010f4:	b508      	push	{r3, lr}
100010f6:	f7ff ffd1 	bl	1000109c <SystemCoreSetup>
100010fa:	f7ff fff7 	bl	100010ec <SystemCoreClockSetup>
100010fe:	bd08      	pop	{r3, pc}

10001100 <__aeabi_uidiv>:
10001100:	2204      	movs	r2, #4
10001102:	4b05      	ldr	r3, [pc, #20]	; (10001118 <__aeabi_uidiv+0x18>)
10001104:	635a      	str	r2, [r3, #52]	; 0x34
10001106:	6218      	str	r0, [r3, #32]
10001108:	6259      	str	r1, [r3, #36]	; 0x24
1000110a:	6b1a      	ldr	r2, [r3, #48]	; 0x30
1000110c:	2a00      	cmp	r2, #0
1000110e:	d1fc      	bne.n	1000110a <__aeabi_uidiv+0xa>
10001110:	4b01      	ldr	r3, [pc, #4]	; (10001118 <__aeabi_uidiv+0x18>)
10001112:	6a98      	ldr	r0, [r3, #40]	; 0x28
10001114:	4770      	bx	lr
10001116:	46c0      	nop			; (mov r8, r8)
10001118:	40030000 	.word	0x40030000

1000111c <_init>:
1000111c:	4770      	bx	lr
	...

10001120 <pvPortMalloc>:
10001120:	b538      	push	{r3, r4, r5, lr}
10001122:	2307      	movs	r3, #7
10001124:	1c04      	adds	r4, r0, #0
10001126:	4218      	tst	r0, r3
10001128:	d001      	beq.n	1000112e <pvPortMalloc+0xe>
1000112a:	439c      	bics	r4, r3
1000112c:	3408      	adds	r4, #8
1000112e:	f000 fa73 	bl	10001618 <vTaskSuspendAll>
10001132:	4b0c      	ldr	r3, [pc, #48]	; (10001164 <pvPortMalloc+0x44>)
10001134:	681a      	ldr	r2, [r3, #0]
10001136:	2a00      	cmp	r2, #0
10001138:	d104      	bne.n	10001144 <pvPortMalloc+0x24>
1000113a:	2107      	movs	r1, #7
1000113c:	4a0a      	ldr	r2, [pc, #40]	; (10001168 <pvPortMalloc+0x48>)
1000113e:	3208      	adds	r2, #8
10001140:	438a      	bics	r2, r1
10001142:	601a      	str	r2, [r3, #0]
10001144:	4909      	ldr	r1, [pc, #36]	; (1000116c <pvPortMalloc+0x4c>)
10001146:	480a      	ldr	r0, [pc, #40]	; (10001170 <pvPortMalloc+0x50>)
10001148:	680a      	ldr	r2, [r1, #0]
1000114a:	2500      	movs	r5, #0
1000114c:	18a4      	adds	r4, r4, r2
1000114e:	4284      	cmp	r4, r0
10001150:	d804      	bhi.n	1000115c <pvPortMalloc+0x3c>
10001152:	4294      	cmp	r4, r2
10001154:	d902      	bls.n	1000115c <pvPortMalloc+0x3c>
10001156:	681d      	ldr	r5, [r3, #0]
10001158:	600c      	str	r4, [r1, #0]
1000115a:	18ad      	adds	r5, r5, r2
1000115c:	f000 fae4 	bl	10001728 <xTaskResumeAll>
10001160:	1c28      	adds	r0, r5, #0
10001162:	bd38      	pop	{r3, r4, r5, pc}
10001164:	20003050 	.word	0x20003050
10001168:	20000558 	.word	0x20000558
1000116c:	20000554 	.word	0x20000554
10001170:	00002aef 	.word	0x00002aef

10001174 <vPortFree>:
10001174:	2800      	cmp	r0, #0
10001176:	d001      	beq.n	1000117c <vPortFree+0x8>
10001178:	b672      	cpsid	i
1000117a:	e7fe      	b.n	1000117a <vPortFree+0x6>
1000117c:	4770      	bx	lr

1000117e <vListInitialise>:
1000117e:	1c03      	adds	r3, r0, #0
10001180:	2201      	movs	r2, #1
10001182:	3308      	adds	r3, #8
10001184:	6043      	str	r3, [r0, #4]
10001186:	60c3      	str	r3, [r0, #12]
10001188:	6103      	str	r3, [r0, #16]
1000118a:	2300      	movs	r3, #0
1000118c:	4252      	negs	r2, r2
1000118e:	6082      	str	r2, [r0, #8]
10001190:	6003      	str	r3, [r0, #0]
10001192:	4770      	bx	lr

10001194 <vListInitialiseItem>:
10001194:	2300      	movs	r3, #0
10001196:	6103      	str	r3, [r0, #16]
10001198:	4770      	bx	lr

1000119a <vListInsertEnd>:
1000119a:	6843      	ldr	r3, [r0, #4]
1000119c:	689a      	ldr	r2, [r3, #8]
1000119e:	604b      	str	r3, [r1, #4]
100011a0:	608a      	str	r2, [r1, #8]
100011a2:	689a      	ldr	r2, [r3, #8]
100011a4:	6051      	str	r1, [r2, #4]
100011a6:	6099      	str	r1, [r3, #8]
100011a8:	6803      	ldr	r3, [r0, #0]
100011aa:	6108      	str	r0, [r1, #16]
100011ac:	3301      	adds	r3, #1
100011ae:	6003      	str	r3, [r0, #0]
100011b0:	4770      	bx	lr

100011b2 <vListInsert>:
100011b2:	1c03      	adds	r3, r0, #0
100011b4:	680a      	ldr	r2, [r1, #0]
100011b6:	b530      	push	{r4, r5, lr}
100011b8:	3308      	adds	r3, #8
100011ba:	1c54      	adds	r4, r2, #1
100011bc:	d101      	bne.n	100011c2 <vListInsert+0x10>
100011be:	6903      	ldr	r3, [r0, #16]
100011c0:	e005      	b.n	100011ce <vListInsert+0x1c>
100011c2:	685c      	ldr	r4, [r3, #4]
100011c4:	6825      	ldr	r5, [r4, #0]
100011c6:	4295      	cmp	r5, r2
100011c8:	d801      	bhi.n	100011ce <vListInsert+0x1c>
100011ca:	1c23      	adds	r3, r4, #0
100011cc:	e7f9      	b.n	100011c2 <vListInsert+0x10>
100011ce:	685a      	ldr	r2, [r3, #4]
100011d0:	604a      	str	r2, [r1, #4]
100011d2:	6091      	str	r1, [r2, #8]
100011d4:	608b      	str	r3, [r1, #8]
100011d6:	6059      	str	r1, [r3, #4]
100011d8:	6803      	ldr	r3, [r0, #0]
100011da:	6108      	str	r0, [r1, #16]
100011dc:	3301      	adds	r3, #1
100011de:	6003      	str	r3, [r0, #0]
100011e0:	bd30      	pop	{r4, r5, pc}

100011e2 <uxListRemove>:
100011e2:	6841      	ldr	r1, [r0, #4]
100011e4:	6882      	ldr	r2, [r0, #8]
100011e6:	6903      	ldr	r3, [r0, #16]
100011e8:	608a      	str	r2, [r1, #8]
100011ea:	6882      	ldr	r2, [r0, #8]
100011ec:	6051      	str	r1, [r2, #4]
100011ee:	6859      	ldr	r1, [r3, #4]
100011f0:	4281      	cmp	r1, r0
100011f2:	d100      	bne.n	100011f6 <uxListRemove+0x14>
100011f4:	605a      	str	r2, [r3, #4]
100011f6:	2200      	movs	r2, #0
100011f8:	6102      	str	r2, [r0, #16]
100011fa:	681a      	ldr	r2, [r3, #0]
100011fc:	1e50      	subs	r0, r2, #1
100011fe:	6018      	str	r0, [r3, #0]
10001200:	4770      	bx	lr
	...

10001204 <prvTaskExitError>:
10001204:	4b03      	ldr	r3, [pc, #12]	; (10001214 <prvTaskExitError+0x10>)
10001206:	681b      	ldr	r3, [r3, #0]
10001208:	3301      	adds	r3, #1
1000120a:	d001      	beq.n	10001210 <prvTaskExitError+0xc>
1000120c:	b672      	cpsid	i
1000120e:	e7fe      	b.n	1000120e <prvTaskExitError+0xa>
10001210:	b672      	cpsid	i
10001212:	e7fe      	b.n	10001212 <prvTaskExitError+0xe>
10001214:	20000548 	.word	0x20000548
	...

10001220 <vPortStartFirstTask>:
10001220:	4a0b      	ldr	r2, [pc, #44]	; (10001250 <pxCurrentTCBConst2>)
10001222:	6813      	ldr	r3, [r2, #0]
10001224:	6818      	ldr	r0, [r3, #0]
10001226:	3020      	adds	r0, #32
10001228:	f380 8809 	msr	PSP, r0
1000122c:	2002      	movs	r0, #2
1000122e:	f380 8814 	msr	CONTROL, r0
10001232:	f3bf 8f6f 	isb	sy
10001236:	bc3f      	pop	{r0, r1, r2, r3, r4, r5}
10001238:	46ae      	mov	lr, r5
1000123a:	bc08      	pop	{r3}
1000123c:	bc04      	pop	{r2}
1000123e:	b662      	cpsie	i
10001240:	4718      	bx	r3
10001242:	46c0      	nop			; (mov r8, r8)
10001244:	46c0      	nop			; (mov r8, r8)
10001246:	46c0      	nop			; (mov r8, r8)
10001248:	46c0      	nop			; (mov r8, r8)
1000124a:	46c0      	nop			; (mov r8, r8)
1000124c:	46c0      	nop			; (mov r8, r8)
1000124e:	46c0      	nop			; (mov r8, r8)

10001250 <pxCurrentTCBConst2>:
10001250:	200030fc 	.word	0x200030fc
10001254:	46c0      	nop			; (mov r8, r8)
10001256:	46c0      	nop			; (mov r8, r8)
10001258:	46c0      	nop			; (mov r8, r8)
1000125a:	46c0      	nop			; (mov r8, r8)
1000125c:	46c0      	nop			; (mov r8, r8)
1000125e:	46c0      	nop			; (mov r8, r8)

10001260 <pxPortInitialiseStack>:
10001260:	b510      	push	{r4, lr}
10001262:	2480      	movs	r4, #128	; 0x80
10001264:	1f03      	subs	r3, r0, #4
10001266:	0464      	lsls	r4, r4, #17
10001268:	601c      	str	r4, [r3, #0]
1000126a:	3b04      	subs	r3, #4
1000126c:	6019      	str	r1, [r3, #0]
1000126e:	4903      	ldr	r1, [pc, #12]	; (1000127c <pxPortInitialiseStack+0x1c>)
10001270:	3b04      	subs	r3, #4
10001272:	6019      	str	r1, [r3, #0]
10001274:	3b14      	subs	r3, #20
10001276:	3840      	subs	r0, #64	; 0x40
10001278:	601a      	str	r2, [r3, #0]
1000127a:	bd10      	pop	{r4, pc}
1000127c:	10001205 	.word	0x10001205

10001280 <SVC_Handler>:
10001280:	4770      	bx	lr
	...

10001284 <xPortStartScheduler>:
10001284:	21ff      	movs	r1, #255	; 0xff
10001286:	b508      	push	{r3, lr}
10001288:	4b0b      	ldr	r3, [pc, #44]	; (100012b8 <xPortStartScheduler+0x34>)
1000128a:	0409      	lsls	r1, r1, #16
1000128c:	681a      	ldr	r2, [r3, #0]
1000128e:	430a      	orrs	r2, r1
10001290:	21ff      	movs	r1, #255	; 0xff
10001292:	601a      	str	r2, [r3, #0]
10001294:	681a      	ldr	r2, [r3, #0]
10001296:	0609      	lsls	r1, r1, #24
10001298:	430a      	orrs	r2, r1
1000129a:	601a      	str	r2, [r3, #0]
1000129c:	4a07      	ldr	r2, [pc, #28]	; (100012bc <xPortStartScheduler+0x38>)
1000129e:	4b08      	ldr	r3, [pc, #32]	; (100012c0 <xPortStartScheduler+0x3c>)
100012a0:	601a      	str	r2, [r3, #0]
100012a2:	2207      	movs	r2, #7
100012a4:	4b07      	ldr	r3, [pc, #28]	; (100012c4 <xPortStartScheduler+0x40>)
100012a6:	601a      	str	r2, [r3, #0]
100012a8:	2200      	movs	r2, #0
100012aa:	4b07      	ldr	r3, [pc, #28]	; (100012c8 <xPortStartScheduler+0x44>)
100012ac:	601a      	str	r2, [r3, #0]
100012ae:	f7ff ffb7 	bl	10001220 <vPortStartFirstTask>
100012b2:	f7ff ffa7 	bl	10001204 <prvTaskExitError>
100012b6:	46c0      	nop			; (mov r8, r8)
100012b8:	e000ed20 	.word	0xe000ed20
100012bc:	00001f3f 	.word	0x00001f3f
100012c0:	e000e014 	.word	0xe000e014
100012c4:	e000e010 	.word	0xe000e010
100012c8:	20000548 	.word	0x20000548

100012cc <vPortYield>:
100012cc:	2280      	movs	r2, #128	; 0x80
100012ce:	4b04      	ldr	r3, [pc, #16]	; (100012e0 <vPortYield+0x14>)
100012d0:	0552      	lsls	r2, r2, #21
100012d2:	601a      	str	r2, [r3, #0]
100012d4:	f3bf 8f4f 	dsb	sy
100012d8:	f3bf 8f6f 	isb	sy
100012dc:	4770      	bx	lr
100012de:	46c0      	nop			; (mov r8, r8)
100012e0:	e000ed04 	.word	0xe000ed04

100012e4 <vPortEnterCritical>:
100012e4:	b672      	cpsid	i
100012e6:	4a04      	ldr	r2, [pc, #16]	; (100012f8 <vPortEnterCritical+0x14>)
100012e8:	6813      	ldr	r3, [r2, #0]
100012ea:	3301      	adds	r3, #1
100012ec:	6013      	str	r3, [r2, #0]
100012ee:	f3bf 8f4f 	dsb	sy
100012f2:	f3bf 8f6f 	isb	sy
100012f6:	4770      	bx	lr
100012f8:	20000548 	.word	0x20000548

100012fc <vPortExitCritical>:
100012fc:	4a05      	ldr	r2, [pc, #20]	; (10001314 <vPortExitCritical+0x18>)
100012fe:	6813      	ldr	r3, [r2, #0]
10001300:	2b00      	cmp	r3, #0
10001302:	d101      	bne.n	10001308 <vPortExitCritical+0xc>
10001304:	b672      	cpsid	i
10001306:	e7fe      	b.n	10001306 <vPortExitCritical+0xa>
10001308:	3b01      	subs	r3, #1
1000130a:	6013      	str	r3, [r2, #0]
1000130c:	2b00      	cmp	r3, #0
1000130e:	d100      	bne.n	10001312 <vPortExitCritical+0x16>
10001310:	b662      	cpsie	i
10001312:	4770      	bx	lr
10001314:	20000548 	.word	0x20000548

10001318 <ulSetInterruptMaskFromISR>:
10001318:	f3ef 8010 	mrs	r0, PRIMASK
1000131c:	b672      	cpsid	i
1000131e:	4770      	bx	lr
10001320:	2000      	movs	r0, #0

10001322 <vClearInterruptMaskFromISR>:
10001322:	f380 8810 	msr	PRIMASK, r0
10001326:	4770      	bx	lr
	...

10001330 <PendSV_Handler>:
10001330:	f3ef 8009 	mrs	r0, PSP
10001334:	4b0e      	ldr	r3, [pc, #56]	; (10001370 <pxCurrentTCBConst>)
10001336:	681a      	ldr	r2, [r3, #0]
10001338:	3820      	subs	r0, #32
1000133a:	6010      	str	r0, [r2, #0]
1000133c:	c0f0      	stmia	r0!, {r4, r5, r6, r7}
1000133e:	4644      	mov	r4, r8
10001340:	464d      	mov	r5, r9
10001342:	4656      	mov	r6, sl
10001344:	465f      	mov	r7, fp
10001346:	c0f0      	stmia	r0!, {r4, r5, r6, r7}
10001348:	b508      	push	{r3, lr}
1000134a:	b672      	cpsid	i
1000134c:	f000 faa4 	bl	10001898 <vTaskSwitchContext>
10001350:	b662      	cpsie	i
10001352:	bc0c      	pop	{r2, r3}
10001354:	6811      	ldr	r1, [r2, #0]
10001356:	6808      	ldr	r0, [r1, #0]
10001358:	3010      	adds	r0, #16
1000135a:	c8f0      	ldmia	r0!, {r4, r5, r6, r7}
1000135c:	46a0      	mov	r8, r4
1000135e:	46a9      	mov	r9, r5
10001360:	46b2      	mov	sl, r6
10001362:	46bb      	mov	fp, r7
10001364:	f380 8809 	msr	PSP, r0
10001368:	3820      	subs	r0, #32
1000136a:	c8f0      	ldmia	r0!, {r4, r5, r6, r7}
1000136c:	4718      	bx	r3
1000136e:	46c0      	nop			; (mov r8, r8)

10001370 <pxCurrentTCBConst>:
10001370:	200030fc 	.word	0x200030fc
10001374:	46c0      	nop			; (mov r8, r8)
10001376:	46c0      	nop			; (mov r8, r8)
10001378:	46c0      	nop			; (mov r8, r8)
1000137a:	46c0      	nop			; (mov r8, r8)
1000137c:	46c0      	nop			; (mov r8, r8)
1000137e:	46c0      	nop			; (mov r8, r8)

10001380 <SysTick_Handler>:
10001380:	b510      	push	{r4, lr}
10001382:	f7ff ffc9 	bl	10001318 <ulSetInterruptMaskFromISR>
10001386:	1c04      	adds	r4, r0, #0
10001388:	f000 f94e 	bl	10001628 <xTaskIncrementTick>
1000138c:	2800      	cmp	r0, #0
1000138e:	d003      	beq.n	10001398 <SysTick_Handler+0x18>
10001390:	2280      	movs	r2, #128	; 0x80
10001392:	4b03      	ldr	r3, [pc, #12]	; (100013a0 <SysTick_Handler+0x20>)
10001394:	0552      	lsls	r2, r2, #21
10001396:	601a      	str	r2, [r3, #0]
10001398:	1c20      	adds	r0, r4, #0
1000139a:	f7ff ffc2 	bl	10001322 <vClearInterruptMaskFromISR>
1000139e:	bd10      	pop	{r4, pc}
100013a0:	e000ed04 	.word	0xe000ed04

100013a4 <prvResetNextTaskUnblockTime>:
100013a4:	4a07      	ldr	r2, [pc, #28]	; (100013c4 <prvResetNextTaskUnblockTime+0x20>)
100013a6:	6813      	ldr	r3, [r2, #0]
100013a8:	6819      	ldr	r1, [r3, #0]
100013aa:	4b07      	ldr	r3, [pc, #28]	; (100013c8 <prvResetNextTaskUnblockTime+0x24>)
100013ac:	2900      	cmp	r1, #0
100013ae:	d102      	bne.n	100013b6 <prvResetNextTaskUnblockTime+0x12>
100013b0:	2201      	movs	r2, #1
100013b2:	4252      	negs	r2, r2
100013b4:	e003      	b.n	100013be <prvResetNextTaskUnblockTime+0x1a>
100013b6:	6812      	ldr	r2, [r2, #0]
100013b8:	68d2      	ldr	r2, [r2, #12]
100013ba:	68d2      	ldr	r2, [r2, #12]
100013bc:	6852      	ldr	r2, [r2, #4]
100013be:	601a      	str	r2, [r3, #0]
100013c0:	4770      	bx	lr
100013c2:	46c0      	nop			; (mov r8, r8)
100013c4:	20003058 	.word	0x20003058
100013c8:	20003118 	.word	0x20003118

100013cc <prvAddCurrentTaskToDelayedList>:
100013cc:	b5f8      	push	{r3, r4, r5, r6, r7, lr}
100013ce:	1c04      	adds	r4, r0, #0
100013d0:	4b15      	ldr	r3, [pc, #84]	; (10001428 <prvAddCurrentTaskToDelayedList+0x5c>)
100013d2:	4d16      	ldr	r5, [pc, #88]	; (1000142c <prvAddCurrentTaskToDelayedList+0x60>)
100013d4:	681e      	ldr	r6, [r3, #0]
100013d6:	6828      	ldr	r0, [r5, #0]
100013d8:	1c0f      	adds	r7, r1, #0
100013da:	3004      	adds	r0, #4
100013dc:	f7ff ff01 	bl	100011e2 <uxListRemove>
100013e0:	1c2b      	adds	r3, r5, #0
100013e2:	1c62      	adds	r2, r4, #1
100013e4:	d107      	bne.n	100013f6 <prvAddCurrentTaskToDelayedList+0x2a>
100013e6:	2f00      	cmp	r7, #0
100013e8:	d005      	beq.n	100013f6 <prvAddCurrentTaskToDelayedList+0x2a>
100013ea:	6829      	ldr	r1, [r5, #0]
100013ec:	4810      	ldr	r0, [pc, #64]	; (10001430 <prvAddCurrentTaskToDelayedList+0x64>)
100013ee:	3104      	adds	r1, #4
100013f0:	f7ff fed3 	bl	1000119a <vListInsertEnd>
100013f4:	e016      	b.n	10001424 <prvAddCurrentTaskToDelayedList+0x58>
100013f6:	681a      	ldr	r2, [r3, #0]
100013f8:	19a4      	adds	r4, r4, r6
100013fa:	6054      	str	r4, [r2, #4]
100013fc:	42b4      	cmp	r4, r6
100013fe:	d206      	bcs.n	1000140e <prvAddCurrentTaskToDelayedList+0x42>
10001400:	4a0c      	ldr	r2, [pc, #48]	; (10001434 <prvAddCurrentTaskToDelayedList+0x68>)
10001402:	6810      	ldr	r0, [r2, #0]
10001404:	6819      	ldr	r1, [r3, #0]
10001406:	3104      	adds	r1, #4
10001408:	f7ff fed3 	bl	100011b2 <vListInsert>
1000140c:	e00a      	b.n	10001424 <prvAddCurrentTaskToDelayedList+0x58>
1000140e:	4a0a      	ldr	r2, [pc, #40]	; (10001438 <prvAddCurrentTaskToDelayedList+0x6c>)
10001410:	6810      	ldr	r0, [r2, #0]
10001412:	6819      	ldr	r1, [r3, #0]
10001414:	3104      	adds	r1, #4
10001416:	f7ff fecc 	bl	100011b2 <vListInsert>
1000141a:	4b08      	ldr	r3, [pc, #32]	; (1000143c <prvAddCurrentTaskToDelayedList+0x70>)
1000141c:	681a      	ldr	r2, [r3, #0]
1000141e:	4294      	cmp	r4, r2
10001420:	d200      	bcs.n	10001424 <prvAddCurrentTaskToDelayedList+0x58>
10001422:	601c      	str	r4, [r3, #0]
10001424:	bdf8      	pop	{r3, r4, r5, r6, r7, pc}
10001426:	46c0      	nop			; (mov r8, r8)
10001428:	20003114 	.word	0x20003114
1000142c:	200030fc 	.word	0x200030fc
10001430:	2000313c 	.word	0x2000313c
10001434:	20003078 	.word	0x20003078
10001438:	20003058 	.word	0x20003058
1000143c:	20003118 	.word	0x20003118

10001440 <xTaskCreate>:
10001440:	b5f0      	push	{r4, r5, r6, r7, lr}
10001442:	0095      	lsls	r5, r2, #2
10001444:	b085      	sub	sp, #20
10001446:	9002      	str	r0, [sp, #8]
10001448:	1c28      	adds	r0, r5, #0
1000144a:	1c0f      	adds	r7, r1, #0
1000144c:	9303      	str	r3, [sp, #12]
1000144e:	f7ff fe67 	bl	10001120 <pvPortMalloc>
10001452:	1e06      	subs	r6, r0, #0
10001454:	d100      	bne.n	10001458 <xTaskCreate+0x18>
10001456:	e096      	b.n	10001586 <xTaskCreate+0x146>
10001458:	204c      	movs	r0, #76	; 0x4c
1000145a:	f7ff fe61 	bl	10001120 <pvPortMalloc>
1000145e:	1e04      	subs	r4, r0, #0
10001460:	d007      	beq.n	10001472 <xTaskCreate+0x32>
10001462:	2307      	movs	r3, #7
10001464:	3d04      	subs	r5, #4
10001466:	6306      	str	r6, [r0, #48]	; 0x30
10001468:	1976      	adds	r6, r6, r5
1000146a:	439e      	bics	r6, r3
1000146c:	9601      	str	r6, [sp, #4]
1000146e:	2300      	movs	r3, #0
10001470:	e006      	b.n	10001480 <xTaskCreate+0x40>
10001472:	1c30      	adds	r0, r6, #0
10001474:	f7ff fe7e 	bl	10001174 <vPortFree>
10001478:	e085      	b.n	10001586 <xTaskCreate+0x146>
1000147a:	3301      	adds	r3, #1
1000147c:	2b05      	cmp	r3, #5
1000147e:	d006      	beq.n	1000148e <xTaskCreate+0x4e>
10001480:	1c1a      	adds	r2, r3, #0
10001482:	5cf9      	ldrb	r1, [r7, r3]
10001484:	3234      	adds	r2, #52	; 0x34
10001486:	54a1      	strb	r1, [r4, r2]
10001488:	5cfa      	ldrb	r2, [r7, r3]
1000148a:	2a00      	cmp	r2, #0
1000148c:	d1f5      	bne.n	1000147a <xTaskCreate+0x3a>
1000148e:	1c23      	adds	r3, r4, #0
10001490:	2500      	movs	r5, #0
10001492:	9e0a      	ldr	r6, [sp, #40]	; 0x28
10001494:	3338      	adds	r3, #56	; 0x38
10001496:	701d      	strb	r5, [r3, #0]
10001498:	2e04      	cmp	r6, #4
1000149a:	d900      	bls.n	1000149e <xTaskCreate+0x5e>
1000149c:	2604      	movs	r6, #4
1000149e:	1d23      	adds	r3, r4, #4
100014a0:	1c18      	adds	r0, r3, #0
100014a2:	62e6      	str	r6, [r4, #44]	; 0x2c
100014a4:	63e6      	str	r6, [r4, #60]	; 0x3c
100014a6:	6425      	str	r5, [r4, #64]	; 0x40
100014a8:	9300      	str	r3, [sp, #0]
100014aa:	f7ff fe73 	bl	10001194 <vListInitialiseItem>
100014ae:	1c20      	adds	r0, r4, #0
100014b0:	3018      	adds	r0, #24
100014b2:	f7ff fe6f 	bl	10001194 <vListInitialiseItem>
100014b6:	2305      	movs	r3, #5
100014b8:	1b9e      	subs	r6, r3, r6
100014ba:	1c23      	adds	r3, r4, #0
100014bc:	3348      	adds	r3, #72	; 0x48
100014be:	6124      	str	r4, [r4, #16]
100014c0:	61a6      	str	r6, [r4, #24]
100014c2:	6264      	str	r4, [r4, #36]	; 0x24
100014c4:	6465      	str	r5, [r4, #68]	; 0x44
100014c6:	9801      	ldr	r0, [sp, #4]
100014c8:	701d      	strb	r5, [r3, #0]
100014ca:	9902      	ldr	r1, [sp, #8]
100014cc:	9a03      	ldr	r2, [sp, #12]
100014ce:	f7ff fec7 	bl	10001260 <pxPortInitialiseStack>
100014d2:	9b0b      	ldr	r3, [sp, #44]	; 0x2c
100014d4:	6020      	str	r0, [r4, #0]
100014d6:	2b00      	cmp	r3, #0
100014d8:	d000      	beq.n	100014dc <xTaskCreate+0x9c>
100014da:	601c      	str	r4, [r3, #0]
100014dc:	f7ff ff02 	bl	100012e4 <vPortEnterCritical>
100014e0:	4b2b      	ldr	r3, [pc, #172]	; (10001590 <xTaskCreate+0x150>)
100014e2:	4d2c      	ldr	r5, [pc, #176]	; (10001594 <xTaskCreate+0x154>)
100014e4:	681a      	ldr	r2, [r3, #0]
100014e6:	3201      	adds	r2, #1
100014e8:	601a      	str	r2, [r3, #0]
100014ea:	682e      	ldr	r6, [r5, #0]
100014ec:	2e00      	cmp	r6, #0
100014ee:	d120      	bne.n	10001532 <xTaskCreate+0xf2>
100014f0:	602c      	str	r4, [r5, #0]
100014f2:	681b      	ldr	r3, [r3, #0]
100014f4:	2b01      	cmp	r3, #1
100014f6:	d126      	bne.n	10001546 <xTaskCreate+0x106>
100014f8:	4b27      	ldr	r3, [pc, #156]	; (10001598 <xTaskCreate+0x158>)
100014fa:	1998      	adds	r0, r3, r6
100014fc:	3614      	adds	r6, #20
100014fe:	f7ff fe3e 	bl	1000117e <vListInitialise>
10001502:	2e64      	cmp	r6, #100	; 0x64
10001504:	d1f8      	bne.n	100014f8 <xTaskCreate+0xb8>
10001506:	4e25      	ldr	r6, [pc, #148]	; (1000159c <xTaskCreate+0x15c>)
10001508:	1c30      	adds	r0, r6, #0
1000150a:	f7ff fe38 	bl	1000117e <vListInitialise>
1000150e:	4f24      	ldr	r7, [pc, #144]	; (100015a0 <xTaskCreate+0x160>)
10001510:	1c38      	adds	r0, r7, #0
10001512:	f7ff fe34 	bl	1000117e <vListInitialise>
10001516:	4823      	ldr	r0, [pc, #140]	; (100015a4 <xTaskCreate+0x164>)
10001518:	f7ff fe31 	bl	1000117e <vListInitialise>
1000151c:	4822      	ldr	r0, [pc, #136]	; (100015a8 <xTaskCreate+0x168>)
1000151e:	f7ff fe2e 	bl	1000117e <vListInitialise>
10001522:	4822      	ldr	r0, [pc, #136]	; (100015ac <xTaskCreate+0x16c>)
10001524:	f7ff fe2b 	bl	1000117e <vListInitialise>
10001528:	4b21      	ldr	r3, [pc, #132]	; (100015b0 <xTaskCreate+0x170>)
1000152a:	601e      	str	r6, [r3, #0]
1000152c:	4b21      	ldr	r3, [pc, #132]	; (100015b4 <xTaskCreate+0x174>)
1000152e:	601f      	str	r7, [r3, #0]
10001530:	e009      	b.n	10001546 <xTaskCreate+0x106>
10001532:	4b21      	ldr	r3, [pc, #132]	; (100015b8 <xTaskCreate+0x178>)
10001534:	681b      	ldr	r3, [r3, #0]
10001536:	2b00      	cmp	r3, #0
10001538:	d105      	bne.n	10001546 <xTaskCreate+0x106>
1000153a:	682b      	ldr	r3, [r5, #0]
1000153c:	6ae2      	ldr	r2, [r4, #44]	; 0x2c
1000153e:	6adb      	ldr	r3, [r3, #44]	; 0x2c
10001540:	4293      	cmp	r3, r2
10001542:	d800      	bhi.n	10001546 <xTaskCreate+0x106>
10001544:	602c      	str	r4, [r5, #0]
10001546:	4a1d      	ldr	r2, [pc, #116]	; (100015bc <xTaskCreate+0x17c>)
10001548:	6ae0      	ldr	r0, [r4, #44]	; 0x2c
1000154a:	6813      	ldr	r3, [r2, #0]
1000154c:	3301      	adds	r3, #1
1000154e:	6013      	str	r3, [r2, #0]
10001550:	4b1b      	ldr	r3, [pc, #108]	; (100015c0 <xTaskCreate+0x180>)
10001552:	681a      	ldr	r2, [r3, #0]
10001554:	4290      	cmp	r0, r2
10001556:	d900      	bls.n	1000155a <xTaskCreate+0x11a>
10001558:	6018      	str	r0, [r3, #0]
1000155a:	2314      	movs	r3, #20
1000155c:	4358      	muls	r0, r3
1000155e:	4b0e      	ldr	r3, [pc, #56]	; (10001598 <xTaskCreate+0x158>)
10001560:	9900      	ldr	r1, [sp, #0]
10001562:	1818      	adds	r0, r3, r0
10001564:	f7ff fe19 	bl	1000119a <vListInsertEnd>
10001568:	f7ff fec8 	bl	100012fc <vPortExitCritical>
1000156c:	4b12      	ldr	r3, [pc, #72]	; (100015b8 <xTaskCreate+0x178>)
1000156e:	2601      	movs	r6, #1
10001570:	681b      	ldr	r3, [r3, #0]
10001572:	2b00      	cmp	r3, #0
10001574:	d009      	beq.n	1000158a <xTaskCreate+0x14a>
10001576:	682b      	ldr	r3, [r5, #0]
10001578:	6ada      	ldr	r2, [r3, #44]	; 0x2c
1000157a:	6ae3      	ldr	r3, [r4, #44]	; 0x2c
1000157c:	429a      	cmp	r2, r3
1000157e:	d204      	bcs.n	1000158a <xTaskCreate+0x14a>
10001580:	f7ff fea4 	bl	100012cc <vPortYield>
10001584:	e001      	b.n	1000158a <xTaskCreate+0x14a>
10001586:	2601      	movs	r6, #1
10001588:	4276      	negs	r6, r6
1000158a:	1c30      	adds	r0, r6, #0
1000158c:	b005      	add	sp, #20
1000158e:	bdf0      	pop	{r4, r5, r6, r7, pc}
10001590:	20003120 	.word	0x20003120
10001594:	200030fc 	.word	0x200030fc
10001598:	20003080 	.word	0x20003080
1000159c:	20003064 	.word	0x20003064
100015a0:	20003124 	.word	0x20003124
100015a4:	20003100 	.word	0x20003100
100015a8:	200030e4 	.word	0x200030e4
100015ac:	2000313c 	.word	0x2000313c
100015b0:	20003058 	.word	0x20003058
100015b4:	20003078 	.word	0x20003078
100015b8:	2000305c 	.word	0x2000305c
100015bc:	2000311c 	.word	0x2000311c
100015c0:	20003150 	.word	0x20003150

100015c4 <vTaskStartScheduler>:
100015c4:	b513      	push	{r0, r1, r4, lr}
100015c6:	2400      	movs	r4, #0
100015c8:	4b0d      	ldr	r3, [pc, #52]	; (10001600 <vTaskStartScheduler+0x3c>)
100015ca:	9400      	str	r4, [sp, #0]
100015cc:	9301      	str	r3, [sp, #4]
100015ce:	480d      	ldr	r0, [pc, #52]	; (10001604 <vTaskStartScheduler+0x40>)
100015d0:	490d      	ldr	r1, [pc, #52]	; (10001608 <vTaskStartScheduler+0x44>)
100015d2:	223c      	movs	r2, #60	; 0x3c
100015d4:	1c23      	adds	r3, r4, #0
100015d6:	f7ff ff33 	bl	10001440 <xTaskCreate>
100015da:	2801      	cmp	r0, #1
100015dc:	d10b      	bne.n	100015f6 <vTaskStartScheduler+0x32>
100015de:	b672      	cpsid	i
100015e0:	2201      	movs	r2, #1
100015e2:	4b0a      	ldr	r3, [pc, #40]	; (1000160c <vTaskStartScheduler+0x48>)
100015e4:	4252      	negs	r2, r2
100015e6:	601a      	str	r2, [r3, #0]
100015e8:	4b09      	ldr	r3, [pc, #36]	; (10001610 <vTaskStartScheduler+0x4c>)
100015ea:	6018      	str	r0, [r3, #0]
100015ec:	4b09      	ldr	r3, [pc, #36]	; (10001614 <vTaskStartScheduler+0x50>)
100015ee:	601c      	str	r4, [r3, #0]
100015f0:	f7ff fe48 	bl	10001284 <xPortStartScheduler>
100015f4:	e003      	b.n	100015fe <vTaskStartScheduler+0x3a>
100015f6:	1c43      	adds	r3, r0, #1
100015f8:	d101      	bne.n	100015fe <vTaskStartScheduler+0x3a>
100015fa:	b672      	cpsid	i
100015fc:	e7fe      	b.n	100015fc <vTaskStartScheduler+0x38>
100015fe:	bd13      	pop	{r0, r1, r4, pc}
10001600:	20003138 	.word	0x20003138
10001604:	10001831 	.word	0x10001831
10001608:	1000199c 	.word	0x1000199c
1000160c:	20003118 	.word	0x20003118
10001610:	2000305c 	.word	0x2000305c
10001614:	20003114 	.word	0x20003114

10001618 <vTaskSuspendAll>:
10001618:	4a02      	ldr	r2, [pc, #8]	; (10001624 <vTaskSuspendAll+0xc>)
1000161a:	6813      	ldr	r3, [r2, #0]
1000161c:	3301      	adds	r3, #1
1000161e:	6013      	str	r3, [r2, #0]
10001620:	4770      	bx	lr
10001622:	46c0      	nop			; (mov r8, r8)
10001624:	20003060 	.word	0x20003060

10001628 <xTaskIncrementTick>:
10001628:	4b34      	ldr	r3, [pc, #208]	; (100016fc <xTaskIncrementTick+0xd4>)
1000162a:	b5f7      	push	{r0, r1, r2, r4, r5, r6, r7, lr}
1000162c:	681b      	ldr	r3, [r3, #0]
1000162e:	2b00      	cmp	r3, #0
10001630:	d136      	bne.n	100016a0 <xTaskIncrementTick+0x78>
10001632:	4b33      	ldr	r3, [pc, #204]	; (10001700 <xTaskIncrementTick+0xd8>)
10001634:	681d      	ldr	r5, [r3, #0]
10001636:	3501      	adds	r5, #1
10001638:	601d      	str	r5, [r3, #0]
1000163a:	2d00      	cmp	r5, #0
1000163c:	d111      	bne.n	10001662 <xTaskIncrementTick+0x3a>
1000163e:	4b31      	ldr	r3, [pc, #196]	; (10001704 <xTaskIncrementTick+0xdc>)
10001640:	681a      	ldr	r2, [r3, #0]
10001642:	6812      	ldr	r2, [r2, #0]
10001644:	2a00      	cmp	r2, #0
10001646:	d001      	beq.n	1000164c <xTaskIncrementTick+0x24>
10001648:	b672      	cpsid	i
1000164a:	e7fe      	b.n	1000164a <xTaskIncrementTick+0x22>
1000164c:	4a2e      	ldr	r2, [pc, #184]	; (10001708 <xTaskIncrementTick+0xe0>)
1000164e:	6819      	ldr	r1, [r3, #0]
10001650:	6810      	ldr	r0, [r2, #0]
10001652:	6018      	str	r0, [r3, #0]
10001654:	6011      	str	r1, [r2, #0]
10001656:	4a2d      	ldr	r2, [pc, #180]	; (1000170c <xTaskIncrementTick+0xe4>)
10001658:	6813      	ldr	r3, [r2, #0]
1000165a:	3301      	adds	r3, #1
1000165c:	6013      	str	r3, [r2, #0]
1000165e:	f7ff fea1 	bl	100013a4 <prvResetNextTaskUnblockTime>
10001662:	4f2b      	ldr	r7, [pc, #172]	; (10001710 <xTaskIncrementTick+0xe8>)
10001664:	2400      	movs	r4, #0
10001666:	683b      	ldr	r3, [r7, #0]
10001668:	429d      	cmp	r5, r3
1000166a:	d30e      	bcc.n	1000168a <xTaskIncrementTick+0x62>
1000166c:	4b25      	ldr	r3, [pc, #148]	; (10001704 <xTaskIncrementTick+0xdc>)
1000166e:	681a      	ldr	r2, [r3, #0]
10001670:	6812      	ldr	r2, [r2, #0]
10001672:	2a00      	cmp	r2, #0
10001674:	d102      	bne.n	1000167c <xTaskIncrementTick+0x54>
10001676:	2301      	movs	r3, #1
10001678:	425b      	negs	r3, r3
1000167a:	e005      	b.n	10001688 <xTaskIncrementTick+0x60>
1000167c:	681b      	ldr	r3, [r3, #0]
1000167e:	68db      	ldr	r3, [r3, #12]
10001680:	68de      	ldr	r6, [r3, #12]
10001682:	6873      	ldr	r3, [r6, #4]
10001684:	429d      	cmp	r5, r3
10001686:	d216      	bcs.n	100016b6 <xTaskIncrementTick+0x8e>
10001688:	603b      	str	r3, [r7, #0]
1000168a:	4b22      	ldr	r3, [pc, #136]	; (10001714 <xTaskIncrementTick+0xec>)
1000168c:	681b      	ldr	r3, [r3, #0]
1000168e:	6ada      	ldr	r2, [r3, #44]	; 0x2c
10001690:	2314      	movs	r3, #20
10001692:	4353      	muls	r3, r2
10001694:	4a20      	ldr	r2, [pc, #128]	; (10001718 <xTaskIncrementTick+0xf0>)
10001696:	58d3      	ldr	r3, [r2, r3]
10001698:	2b01      	cmp	r3, #1
1000169a:	d906      	bls.n	100016aa <xTaskIncrementTick+0x82>
1000169c:	2401      	movs	r4, #1
1000169e:	e004      	b.n	100016aa <xTaskIncrementTick+0x82>
100016a0:	2400      	movs	r4, #0
100016a2:	4a1e      	ldr	r2, [pc, #120]	; (1000171c <xTaskIncrementTick+0xf4>)
100016a4:	6813      	ldr	r3, [r2, #0]
100016a6:	3301      	adds	r3, #1
100016a8:	6013      	str	r3, [r2, #0]
100016aa:	4b1d      	ldr	r3, [pc, #116]	; (10001720 <xTaskIncrementTick+0xf8>)
100016ac:	681b      	ldr	r3, [r3, #0]
100016ae:	2b00      	cmp	r3, #0
100016b0:	d022      	beq.n	100016f8 <xTaskIncrementTick+0xd0>
100016b2:	2401      	movs	r4, #1
100016b4:	e020      	b.n	100016f8 <xTaskIncrementTick+0xd0>
100016b6:	1d33      	adds	r3, r6, #4
100016b8:	1c18      	adds	r0, r3, #0
100016ba:	9301      	str	r3, [sp, #4]
100016bc:	f7ff fd91 	bl	100011e2 <uxListRemove>
100016c0:	6ab3      	ldr	r3, [r6, #40]	; 0x28
100016c2:	2b00      	cmp	r3, #0
100016c4:	d003      	beq.n	100016ce <xTaskIncrementTick+0xa6>
100016c6:	1c30      	adds	r0, r6, #0
100016c8:	3018      	adds	r0, #24
100016ca:	f7ff fd8a 	bl	100011e2 <uxListRemove>
100016ce:	4b15      	ldr	r3, [pc, #84]	; (10001724 <xTaskIncrementTick+0xfc>)
100016d0:	6af0      	ldr	r0, [r6, #44]	; 0x2c
100016d2:	681a      	ldr	r2, [r3, #0]
100016d4:	4290      	cmp	r0, r2
100016d6:	d900      	bls.n	100016da <xTaskIncrementTick+0xb2>
100016d8:	6018      	str	r0, [r3, #0]
100016da:	2314      	movs	r3, #20
100016dc:	4358      	muls	r0, r3
100016de:	4b0e      	ldr	r3, [pc, #56]	; (10001718 <xTaskIncrementTick+0xf0>)
100016e0:	9901      	ldr	r1, [sp, #4]
100016e2:	1818      	adds	r0, r3, r0
100016e4:	f7ff fd59 	bl	1000119a <vListInsertEnd>
100016e8:	4b0a      	ldr	r3, [pc, #40]	; (10001714 <xTaskIncrementTick+0xec>)
100016ea:	6af2      	ldr	r2, [r6, #44]	; 0x2c
100016ec:	681b      	ldr	r3, [r3, #0]
100016ee:	6adb      	ldr	r3, [r3, #44]	; 0x2c
100016f0:	429a      	cmp	r2, r3
100016f2:	d3bb      	bcc.n	1000166c <xTaskIncrementTick+0x44>
100016f4:	2401      	movs	r4, #1
100016f6:	e7b9      	b.n	1000166c <xTaskIncrementTick+0x44>
100016f8:	1c20      	adds	r0, r4, #0
100016fa:	bdfe      	pop	{r1, r2, r3, r4, r5, r6, r7, pc}
100016fc:	20003060 	.word	0x20003060
10001700:	20003114 	.word	0x20003114
10001704:	20003058 	.word	0x20003058
10001708:	20003078 	.word	0x20003078
1000170c:	20003054 	.word	0x20003054
10001710:	20003118 	.word	0x20003118
10001714:	200030fc 	.word	0x200030fc
10001718:	20003080 	.word	0x20003080
1000171c:	2000307c 	.word	0x2000307c
10001720:	20003154 	.word	0x20003154
10001724:	20003150 	.word	0x20003150

10001728 <xTaskResumeAll>:
10001728:	b538      	push	{r3, r4, r5, lr}
1000172a:	4c2c      	ldr	r4, [pc, #176]	; (100017dc <xTaskResumeAll+0xb4>)
1000172c:	6823      	ldr	r3, [r4, #0]
1000172e:	2b00      	cmp	r3, #0
10001730:	d101      	bne.n	10001736 <xTaskResumeAll+0xe>
10001732:	b672      	cpsid	i
10001734:	e7fe      	b.n	10001734 <xTaskResumeAll+0xc>
10001736:	f7ff fdd5 	bl	100012e4 <vPortEnterCritical>
1000173a:	6823      	ldr	r3, [r4, #0]
1000173c:	3b01      	subs	r3, #1
1000173e:	6023      	str	r3, [r4, #0]
10001740:	6824      	ldr	r4, [r4, #0]
10001742:	2c00      	cmp	r4, #0
10001744:	d001      	beq.n	1000174a <xTaskResumeAll+0x22>
10001746:	2400      	movs	r4, #0
10001748:	e043      	b.n	100017d2 <xTaskResumeAll+0xaa>
1000174a:	4b25      	ldr	r3, [pc, #148]	; (100017e0 <xTaskResumeAll+0xb8>)
1000174c:	681b      	ldr	r3, [r3, #0]
1000174e:	2b00      	cmp	r3, #0
10001750:	d0f9      	beq.n	10001746 <xTaskResumeAll+0x1e>
10001752:	4b24      	ldr	r3, [pc, #144]	; (100017e4 <xTaskResumeAll+0xbc>)
10001754:	681a      	ldr	r2, [r3, #0]
10001756:	2a00      	cmp	r2, #0
10001758:	d020      	beq.n	1000179c <xTaskResumeAll+0x74>
1000175a:	68db      	ldr	r3, [r3, #12]
1000175c:	68dc      	ldr	r4, [r3, #12]
1000175e:	1c20      	adds	r0, r4, #0
10001760:	1d25      	adds	r5, r4, #4
10001762:	3018      	adds	r0, #24
10001764:	f7ff fd3d 	bl	100011e2 <uxListRemove>
10001768:	1c28      	adds	r0, r5, #0
1000176a:	f7ff fd3a 	bl	100011e2 <uxListRemove>
1000176e:	4b1e      	ldr	r3, [pc, #120]	; (100017e8 <xTaskResumeAll+0xc0>)
10001770:	6ae0      	ldr	r0, [r4, #44]	; 0x2c
10001772:	681a      	ldr	r2, [r3, #0]
10001774:	4290      	cmp	r0, r2
10001776:	d900      	bls.n	1000177a <xTaskResumeAll+0x52>
10001778:	6018      	str	r0, [r3, #0]
1000177a:	2314      	movs	r3, #20
1000177c:	4358      	muls	r0, r3
1000177e:	4b1b      	ldr	r3, [pc, #108]	; (100017ec <xTaskResumeAll+0xc4>)
10001780:	1c29      	adds	r1, r5, #0
10001782:	1818      	adds	r0, r3, r0
10001784:	f7ff fd09 	bl	1000119a <vListInsertEnd>
10001788:	4b19      	ldr	r3, [pc, #100]	; (100017f0 <xTaskResumeAll+0xc8>)
1000178a:	6ae2      	ldr	r2, [r4, #44]	; 0x2c
1000178c:	681b      	ldr	r3, [r3, #0]
1000178e:	6adb      	ldr	r3, [r3, #44]	; 0x2c
10001790:	429a      	cmp	r2, r3
10001792:	d3de      	bcc.n	10001752 <xTaskResumeAll+0x2a>
10001794:	2201      	movs	r2, #1
10001796:	4b17      	ldr	r3, [pc, #92]	; (100017f4 <xTaskResumeAll+0xcc>)
10001798:	601a      	str	r2, [r3, #0]
1000179a:	e7da      	b.n	10001752 <xTaskResumeAll+0x2a>
1000179c:	2c00      	cmp	r4, #0
1000179e:	d001      	beq.n	100017a4 <xTaskResumeAll+0x7c>
100017a0:	f7ff fe00 	bl	100013a4 <prvResetNextTaskUnblockTime>
100017a4:	4b14      	ldr	r3, [pc, #80]	; (100017f8 <xTaskResumeAll+0xd0>)
100017a6:	681c      	ldr	r4, [r3, #0]
100017a8:	1c1d      	adds	r5, r3, #0
100017aa:	2c00      	cmp	r4, #0
100017ac:	d00a      	beq.n	100017c4 <xTaskResumeAll+0x9c>
100017ae:	f7ff ff3b 	bl	10001628 <xTaskIncrementTick>
100017b2:	2800      	cmp	r0, #0
100017b4:	d002      	beq.n	100017bc <xTaskResumeAll+0x94>
100017b6:	2201      	movs	r2, #1
100017b8:	4b0e      	ldr	r3, [pc, #56]	; (100017f4 <xTaskResumeAll+0xcc>)
100017ba:	601a      	str	r2, [r3, #0]
100017bc:	3c01      	subs	r4, #1
100017be:	2c00      	cmp	r4, #0
100017c0:	d1f5      	bne.n	100017ae <xTaskResumeAll+0x86>
100017c2:	602c      	str	r4, [r5, #0]
100017c4:	4b0b      	ldr	r3, [pc, #44]	; (100017f4 <xTaskResumeAll+0xcc>)
100017c6:	681b      	ldr	r3, [r3, #0]
100017c8:	2b00      	cmp	r3, #0
100017ca:	d0bc      	beq.n	10001746 <xTaskResumeAll+0x1e>
100017cc:	f7ff fd7e 	bl	100012cc <vPortYield>
100017d0:	2401      	movs	r4, #1
100017d2:	f7ff fd93 	bl	100012fc <vPortExitCritical>
100017d6:	1c20      	adds	r0, r4, #0
100017d8:	bd38      	pop	{r3, r4, r5, pc}
100017da:	46c0      	nop			; (mov r8, r8)
100017dc:	20003060 	.word	0x20003060
100017e0:	20003120 	.word	0x20003120
100017e4:	20003100 	.word	0x20003100
100017e8:	20003150 	.word	0x20003150
100017ec:	20003080 	.word	0x20003080
100017f0:	200030fc 	.word	0x200030fc
100017f4:	20003154 	.word	0x20003154
100017f8:	2000307c 	.word	0x2000307c

100017fc <vTaskDelay>:
100017fc:	b538      	push	{r3, r4, r5, lr}
100017fe:	1e05      	subs	r5, r0, #0
10001800:	d102      	bne.n	10001808 <vTaskDelay+0xc>
10001802:	f7ff fd63 	bl	100012cc <vPortYield>
10001806:	e00f      	b.n	10001828 <vTaskDelay+0x2c>
10001808:	4b08      	ldr	r3, [pc, #32]	; (1000182c <vTaskDelay+0x30>)
1000180a:	681c      	ldr	r4, [r3, #0]
1000180c:	2c00      	cmp	r4, #0
1000180e:	d001      	beq.n	10001814 <vTaskDelay+0x18>
10001810:	b672      	cpsid	i
10001812:	e7fe      	b.n	10001812 <vTaskDelay+0x16>
10001814:	f7ff ff00 	bl	10001618 <vTaskSuspendAll>
10001818:	1c28      	adds	r0, r5, #0
1000181a:	1c21      	adds	r1, r4, #0
1000181c:	f7ff fdd6 	bl	100013cc <prvAddCurrentTaskToDelayedList>
10001820:	f7ff ff82 	bl	10001728 <xTaskResumeAll>
10001824:	2800      	cmp	r0, #0
10001826:	d0ec      	beq.n	10001802 <vTaskDelay+0x6>
10001828:	bd38      	pop	{r3, r4, r5, pc}
1000182a:	46c0      	nop			; (mov r8, r8)
1000182c:	20003060 	.word	0x20003060

10001830 <prvIdleTask>:
10001830:	b570      	push	{r4, r5, r6, lr}
10001832:	4c15      	ldr	r4, [pc, #84]	; (10001888 <prvIdleTask+0x58>)
10001834:	6823      	ldr	r3, [r4, #0]
10001836:	2b00      	cmp	r3, #0
10001838:	d01e      	beq.n	10001878 <prvIdleTask+0x48>
1000183a:	f7ff feed 	bl	10001618 <vTaskSuspendAll>
1000183e:	4d13      	ldr	r5, [pc, #76]	; (1000188c <prvIdleTask+0x5c>)
10001840:	682e      	ldr	r6, [r5, #0]
10001842:	f7ff ff71 	bl	10001728 <xTaskResumeAll>
10001846:	2e00      	cmp	r6, #0
10001848:	d0f3      	beq.n	10001832 <prvIdleTask+0x2>
1000184a:	f7ff fd4b 	bl	100012e4 <vPortEnterCritical>
1000184e:	68eb      	ldr	r3, [r5, #12]
10001850:	68dd      	ldr	r5, [r3, #12]
10001852:	1d28      	adds	r0, r5, #4
10001854:	f7ff fcc5 	bl	100011e2 <uxListRemove>
10001858:	4a0d      	ldr	r2, [pc, #52]	; (10001890 <prvIdleTask+0x60>)
1000185a:	6813      	ldr	r3, [r2, #0]
1000185c:	3b01      	subs	r3, #1
1000185e:	6013      	str	r3, [r2, #0]
10001860:	6823      	ldr	r3, [r4, #0]
10001862:	3b01      	subs	r3, #1
10001864:	6023      	str	r3, [r4, #0]
10001866:	f7ff fd49 	bl	100012fc <vPortExitCritical>
1000186a:	6b28      	ldr	r0, [r5, #48]	; 0x30
1000186c:	f7ff fc82 	bl	10001174 <vPortFree>
10001870:	1c28      	adds	r0, r5, #0
10001872:	f7ff fc7f 	bl	10001174 <vPortFree>
10001876:	e7dc      	b.n	10001832 <prvIdleTask+0x2>
10001878:	4b06      	ldr	r3, [pc, #24]	; (10001894 <prvIdleTask+0x64>)
1000187a:	681b      	ldr	r3, [r3, #0]
1000187c:	2b01      	cmp	r3, #1
1000187e:	d9d8      	bls.n	10001832 <prvIdleTask+0x2>
10001880:	f7ff fd24 	bl	100012cc <vPortYield>
10001884:	e7d5      	b.n	10001832 <prvIdleTask+0x2>
10001886:	46c0      	nop			; (mov r8, r8)
10001888:	200030f8 	.word	0x200030f8
1000188c:	200030e4 	.word	0x200030e4
10001890:	20003120 	.word	0x20003120
10001894:	20003080 	.word	0x20003080

10001898 <vTaskSwitchContext>:
10001898:	4b15      	ldr	r3, [pc, #84]	; (100018f0 <vTaskSwitchContext+0x58>)
1000189a:	b530      	push	{r4, r5, lr}
1000189c:	681a      	ldr	r2, [r3, #0]
1000189e:	4b15      	ldr	r3, [pc, #84]	; (100018f4 <vTaskSwitchContext+0x5c>)
100018a0:	2a00      	cmp	r2, #0
100018a2:	d002      	beq.n	100018aa <vTaskSwitchContext+0x12>
100018a4:	2201      	movs	r2, #1
100018a6:	601a      	str	r2, [r3, #0]
100018a8:	e020      	b.n	100018ec <vTaskSwitchContext+0x54>
100018aa:	4813      	ldr	r0, [pc, #76]	; (100018f8 <vTaskSwitchContext+0x60>)
100018ac:	601a      	str	r2, [r3, #0]
100018ae:	6802      	ldr	r2, [r0, #0]
100018b0:	2314      	movs	r3, #20
100018b2:	4353      	muls	r3, r2
100018b4:	4911      	ldr	r1, [pc, #68]	; (100018fc <vTaskSwitchContext+0x64>)
100018b6:	585c      	ldr	r4, [r3, r1]
100018b8:	2c00      	cmp	r4, #0
100018ba:	d105      	bne.n	100018c8 <vTaskSwitchContext+0x30>
100018bc:	2a00      	cmp	r2, #0
100018be:	d101      	bne.n	100018c4 <vTaskSwitchContext+0x2c>
100018c0:	b672      	cpsid	i
100018c2:	e7fe      	b.n	100018c2 <vTaskSwitchContext+0x2a>
100018c4:	3a01      	subs	r2, #1
100018c6:	e7f3      	b.n	100018b0 <vTaskSwitchContext+0x18>
100018c8:	18cc      	adds	r4, r1, r3
100018ca:	6865      	ldr	r5, [r4, #4]
100018cc:	3308      	adds	r3, #8
100018ce:	686d      	ldr	r5, [r5, #4]
100018d0:	18cb      	adds	r3, r1, r3
100018d2:	6065      	str	r5, [r4, #4]
100018d4:	429d      	cmp	r5, r3
100018d6:	d101      	bne.n	100018dc <vTaskSwitchContext+0x44>
100018d8:	686b      	ldr	r3, [r5, #4]
100018da:	6063      	str	r3, [r4, #4]
100018dc:	2314      	movs	r3, #20
100018de:	4353      	muls	r3, r2
100018e0:	18c9      	adds	r1, r1, r3
100018e2:	684b      	ldr	r3, [r1, #4]
100018e4:	68d9      	ldr	r1, [r3, #12]
100018e6:	4b06      	ldr	r3, [pc, #24]	; (10001900 <vTaskSwitchContext+0x68>)
100018e8:	6019      	str	r1, [r3, #0]
100018ea:	6002      	str	r2, [r0, #0]
100018ec:	bd30      	pop	{r4, r5, pc}
100018ee:	46c0      	nop			; (mov r8, r8)
100018f0:	20003060 	.word	0x20003060
100018f4:	20003154 	.word	0x20003154
100018f8:	20003150 	.word	0x20003150
100018fc:	20003080 	.word	0x20003080
10001900:	200030fc 	.word	0x200030fc

10001904 <LEDTask>:
10001904:	2201      	movs	r2, #1
10001906:	4b07      	ldr	r3, [pc, #28]	; (10001924 <LEDTask+0x20>)
10001908:	2180      	movs	r1, #128	; 0x80
1000190a:	b510      	push	{r4, lr}
1000190c:	1c1c      	adds	r4, r3, #0
1000190e:	605a      	str	r2, [r3, #4]
10001910:	691a      	ldr	r2, [r3, #16]
10001912:	430a      	orrs	r2, r1
10001914:	611a      	str	r2, [r3, #16]
10001916:	4b04      	ldr	r3, [pc, #16]	; (10001928 <LEDTask+0x24>)
10001918:	20fa      	movs	r0, #250	; 0xfa
1000191a:	6063      	str	r3, [r4, #4]
1000191c:	f7ff ff6e 	bl	100017fc <vTaskDelay>
10001920:	e7f9      	b.n	10001916 <LEDTask+0x12>
10001922:	46c0      	nop			; (mov r8, r8)
10001924:	40040000 	.word	0x40040000
10001928:	00010001 	.word	0x00010001

1000192c <main>:
1000192c:	2301      	movs	r3, #1
1000192e:	b507      	push	{r0, r1, r2, lr}
10001930:	9300      	str	r3, [sp, #0]
10001932:	2300      	movs	r3, #0
10001934:	4904      	ldr	r1, [pc, #16]	; (10001948 <main+0x1c>)
10001936:	9301      	str	r3, [sp, #4]
10001938:	2280      	movs	r2, #128	; 0x80
1000193a:	4804      	ldr	r0, [pc, #16]	; (1000194c <main+0x20>)
1000193c:	f7ff fd80 	bl	10001440 <xTaskCreate>
10001940:	f7ff fe40 	bl	100015c4 <vTaskStartScheduler>
10001944:	e7fe      	b.n	10001944 <main+0x18>
10001946:	46c0      	nop			; (mov r8, r8)
10001948:	100019a1 	.word	0x100019a1
1000194c:	10001905 	.word	0x10001905

10001950 <__libc_init_array>:
10001950:	4b0e      	ldr	r3, [pc, #56]	; (1000198c <__libc_init_array+0x3c>)
10001952:	b570      	push	{r4, r5, r6, lr}
10001954:	2500      	movs	r5, #0
10001956:	1c1e      	adds	r6, r3, #0
10001958:	4c0d      	ldr	r4, [pc, #52]	; (10001990 <__libc_init_array+0x40>)
1000195a:	1ae4      	subs	r4, r4, r3
1000195c:	10a4      	asrs	r4, r4, #2
1000195e:	42a5      	cmp	r5, r4
10001960:	d004      	beq.n	1000196c <__libc_init_array+0x1c>
10001962:	00ab      	lsls	r3, r5, #2
10001964:	58f3      	ldr	r3, [r6, r3]
10001966:	4798      	blx	r3
10001968:	3501      	adds	r5, #1
1000196a:	e7f8      	b.n	1000195e <__libc_init_array+0xe>
1000196c:	f7ff fbd6 	bl	1000111c <_init>
10001970:	4b08      	ldr	r3, [pc, #32]	; (10001994 <__libc_init_array+0x44>)
10001972:	2500      	movs	r5, #0
10001974:	1c1e      	adds	r6, r3, #0
10001976:	4c08      	ldr	r4, [pc, #32]	; (10001998 <__libc_init_array+0x48>)
10001978:	1ae4      	subs	r4, r4, r3
1000197a:	10a4      	asrs	r4, r4, #2
1000197c:	42a5      	cmp	r5, r4
1000197e:	d004      	beq.n	1000198a <__libc_init_array+0x3a>
10001980:	00ab      	lsls	r3, r5, #2
10001982:	58f3      	ldr	r3, [r6, r3]
10001984:	4798      	blx	r3
10001986:	3501      	adds	r5, #1
10001988:	e7f8      	b.n	1000197c <__libc_init_array+0x2c>
1000198a:	bd70      	pop	{r4, r5, r6, pc}
1000198c:	1000199c 	.word	0x1000199c
10001990:	1000199c 	.word	0x1000199c
10001994:	1000199c 	.word	0x1000199c
10001998:	1000199c 	.word	0x1000199c

Disassembly of section .VENEER_Code:

2000000c <HardFault_Veneer>:
2000000c:	482c      	ldr	r0, [pc, #176]	; (200000c0 <BCCU0_0_Veneer+0x4>)
2000000e:	4687      	mov	pc, r0
	...

2000002c <SVC_Veneer>:
2000002c:	4825      	ldr	r0, [pc, #148]	; (200000c4 <BCCU0_0_Veneer+0x8>)
2000002e:	4687      	mov	pc, r0
	...

20000038 <PendSV_Veneer>:
20000038:	4823      	ldr	r0, [pc, #140]	; (200000c8 <BCCU0_0_Veneer+0xc>)
2000003a:	4687      	mov	pc, r0

2000003c <SysTick_Veneer>:
2000003c:	4823      	ldr	r0, [pc, #140]	; (200000cc <BCCU0_0_Veneer+0x10>)
2000003e:	4687      	mov	pc, r0

20000040 <SCU_0_Veneer>:
20000040:	4823      	ldr	r0, [pc, #140]	; (200000d0 <BCCU0_0_Veneer+0x14>)
20000042:	4687      	mov	pc, r0

20000044 <SCU_1_Veneer>:
20000044:	4823      	ldr	r0, [pc, #140]	; (200000d4 <BCCU0_0_Veneer+0x18>)
20000046:	4687      	mov	pc, r0

20000048 <SCU_2_Veneer>:
20000048:	4823      	ldr	r0, [pc, #140]	; (200000d8 <BCCU0_0_Veneer+0x1c>)
2000004a:	4687      	mov	pc, r0

2000004c <SCU_3_Veneer>:
2000004c:	4823      	ldr	r0, [pc, #140]	; (200000dc <BCCU0_0_Veneer+0x20>)
2000004e:	4687      	mov	pc, r0

20000050 <SCU_4_Veneer>:
20000050:	4823      	ldr	r0, [pc, #140]	; (200000e0 <BCCU0_0_Veneer+0x24>)
20000052:	4687      	mov	pc, r0

20000054 <SCU_5_Veneer>:
20000054:	4823      	ldr	r0, [pc, #140]	; (200000e4 <BCCU0_0_Veneer+0x28>)
20000056:	4687      	mov	pc, r0

20000058 <SCU_6_Veneer>:
20000058:	4823      	ldr	r0, [pc, #140]	; (200000e8 <BCCU0_0_Veneer+0x2c>)
2000005a:	4687      	mov	pc, r0

2000005c <MATH_Veneer>:
2000005c:	4823      	ldr	r0, [pc, #140]	; (200000ec <BCCU0_0_Veneer+0x30>)
2000005e:	4687      	mov	pc, r0
20000060:	00000000 	.word	0x00000000

20000064 <USIC0_0_Veneer>:
20000064:	4822      	ldr	r0, [pc, #136]	; (200000f0 <BCCU0_0_Veneer+0x34>)
20000066:	4687      	mov	pc, r0

20000068 <USIC0_1_Veneer>:
20000068:	4822      	ldr	r0, [pc, #136]	; (200000f4 <BCCU0_0_Veneer+0x38>)
2000006a:	4687      	mov	pc, r0

2000006c <USIC0_2_Veneer>:
2000006c:	4822      	ldr	r0, [pc, #136]	; (200000f8 <BCCU0_0_Veneer+0x3c>)
2000006e:	4687      	mov	pc, r0

20000070 <USIC0_3_Veneer>:
20000070:	4822      	ldr	r0, [pc, #136]	; (200000fc <BCCU0_0_Veneer+0x40>)
20000072:	4687      	mov	pc, r0

20000074 <USIC0_4_Veneer>:
20000074:	4822      	ldr	r0, [pc, #136]	; (20000100 <BCCU0_0_Veneer+0x44>)
20000076:	4687      	mov	pc, r0

20000078 <USIC0_5_Veneer>:
20000078:	4822      	ldr	r0, [pc, #136]	; (20000104 <BCCU0_0_Veneer+0x48>)
2000007a:	4687      	mov	pc, r0

2000007c <VADC0_C0_0_Veneer>:
2000007c:	4822      	ldr	r0, [pc, #136]	; (20000108 <BCCU0_0_Veneer+0x4c>)
2000007e:	4687      	mov	pc, r0

20000080 <VADC0_C0_1_Veneer>:
20000080:	4822      	ldr	r0, [pc, #136]	; (2000010c <BCCU0_0_Veneer+0x50>)
20000082:	4687      	mov	pc, r0

20000084 <VADC0_G0_0_Veneer>:
20000084:	4822      	ldr	r0, [pc, #136]	; (20000110 <BCCU0_0_Veneer+0x54>)
20000086:	4687      	mov	pc, r0

20000088 <VADC0_G0_1_Veneer>:
20000088:	4822      	ldr	r0, [pc, #136]	; (20000114 <BCCU0_0_Veneer+0x58>)
2000008a:	4687      	mov	pc, r0

2000008c <VADC0_G1_0_Veneer>:
2000008c:	4822      	ldr	r0, [pc, #136]	; (20000118 <BCCU0_0_Veneer+0x5c>)
2000008e:	4687      	mov	pc, r0

20000090 <VADC0_G1_1_Veneer>:
20000090:	4822      	ldr	r0, [pc, #136]	; (2000011c <BCCU0_0_Veneer+0x60>)
20000092:	4687      	mov	pc, r0

20000094 <CCU40_0_Veneer>:
20000094:	4822      	ldr	r0, [pc, #136]	; (20000120 <BCCU0_0_Veneer+0x64>)
20000096:	4687      	mov	pc, r0

20000098 <CCU40_1_Veneer>:
20000098:	4822      	ldr	r0, [pc, #136]	; (20000124 <BCCU0_0_Veneer+0x68>)
2000009a:	4687      	mov	pc, r0

2000009c <CCU40_2_Veneer>:
2000009c:	4822      	ldr	r0, [pc, #136]	; (20000128 <BCCU0_0_Veneer+0x6c>)
2000009e:	4687      	mov	pc, r0

200000a0 <CCU40_3_Veneer>:
200000a0:	4822      	ldr	r0, [pc, #136]	; (2000012c <BCCU0_0_Veneer+0x70>)
200000a2:	4687      	mov	pc, r0

200000a4 <CCU80_0_Veneer>:
200000a4:	4822      	ldr	r0, [pc, #136]	; (20000130 <BCCU0_0_Veneer+0x74>)
200000a6:	4687      	mov	pc, r0

200000a8 <CCU80_1_Veneer>:
200000a8:	4822      	ldr	r0, [pc, #136]	; (20000134 <BCCU0_0_Veneer+0x78>)
200000aa:	4687      	mov	pc, r0

200000ac <POSIF0_0_Veneer>:
200000ac:	4822      	ldr	r0, [pc, #136]	; (20000138 <BCCU0_0_Veneer+0x7c>)
200000ae:	4687      	mov	pc, r0

200000b0 <POSIF0_1_Veneer>:
200000b0:	4822      	ldr	r0, [pc, #136]	; (2000013c <BCCU0_0_Veneer+0x80>)
200000b2:	4687      	mov	pc, r0
	...

200000bc <BCCU0_0_Veneer>:
200000bc:	4820      	ldr	r0, [pc, #128]	; (20000140 <BCCU0_0_Veneer+0x84>)
200000be:	4687      	mov	pc, r0
200000c0:	10001099 	.word	0x10001099
200000c4:	10001281 	.word	0x10001281
200000c8:	10001331 	.word	0x10001331
200000cc:	10001381 	.word	0x10001381
200000d0:	10001099 	.word	0x10001099
200000d4:	10001099 	.word	0x10001099
200000d8:	10001099 	.word	0x10001099
200000dc:	10001099 	.word	0x10001099
200000e0:	10001099 	.word	0x10001099
200000e4:	10001099 	.word	0x10001099
200000e8:	10001099 	.word	0x10001099
200000ec:	10001099 	.word	0x10001099
200000f0:	10001099 	.word	0x10001099
200000f4:	10001099 	.word	0x10001099
200000f8:	10001099 	.word	0x10001099
200000fc:	10001099 	.word	0x10001099
20000100:	10001099 	.word	0x10001099
20000104:	10001099 	.word	0x10001099
20000108:	10001099 	.word	0x10001099
2000010c:	10001099 	.word	0x10001099
20000110:	10001099 	.word	0x10001099
20000114:	10001099 	.word	0x10001099
20000118:	10001099 	.word	0x10001099
2000011c:	10001099 	.word	0x10001099
20000120:	10001099 	.word	0x10001099
20000124:	10001099 	.word	0x10001099
20000128:	10001099 	.word	0x10001099
2000012c:	10001099 	.word	0x10001099
20000130:	10001099 	.word	0x10001099
20000134:	10001099 	.word	0x10001099
20000138:	10001099 	.word	0x10001099
2000013c:	10001099 	.word	0x10001099
20000140:	10001099 	.word	0x10001099
